CCS PCM C Compiler, Version 5.076, 2401               20-jun.-23 03:13

               Filename:   D:\carlo\Documentos\FI\8vo Semestre\Micro-computadoras\Microcomputadoras\ProyectoFinal\vBLU\Carrito.lst

               ROM used:   369 words (5%)
                           Largest free fragment is 2048
               RAM used:   25 (7%) at main() level
                           27 (7%) worst case
               Stack used: 2 locations (0 in main + 2 for interrupts)
               Stack size: 8

*
0000:  MOVLW  01
0001:  MOVWF  0A
0002:  GOTO   121
0003:  NOP
0004:  MOVWF  7F
0005:  SWAPF  03,W
0006:  CLRF   03
0007:  MOVWF  21
0008:  MOVF   0A,W
0009:  MOVWF  20
000A:  CLRF   0A
000B:  MOVF   04,W
000C:  MOVWF  22
000D:  MOVF   77,W
000E:  MOVWF  23
000F:  MOVF   78,W
0010:  MOVWF  24
0011:  MOVF   79,W
0012:  MOVWF  25
0013:  MOVF   7A,W
0014:  MOVWF  26
0015:  BCF    03.7
0016:  BCF    03.5
0017:  MOVLW  8C
0018:  MOVWF  04
0019:  BTFSS  00.5
001A:  GOTO   01D
001B:  BTFSC  0C.5
001C:  GOTO   02E
001D:  MOVF   22,W
001E:  MOVWF  04
001F:  MOVF   23,W
0020:  MOVWF  77
0021:  MOVF   24,W
0022:  MOVWF  78
0023:  MOVF   25,W
0024:  MOVWF  79
0025:  MOVF   26,W
0026:  MOVWF  7A
0027:  MOVF   20,W
0028:  MOVWF  0A
0029:  SWAPF  21,W
002A:  MOVWF  03
002B:  SWAPF  7F,F
002C:  SWAPF  7F,W
002D:  RETFIE
002E:  BCF    0A.3
002F:  BCF    0A.4
0030:  GOTO   045
.................... #include <16F877.h> 
.................... //////////// Standard Header file for the PIC16F877 device //////////////// 
.................... /////////////////////////////////////////////////////////////////////////// 
.................... ////        (C) Copyright 1996, 2014 Custom Computer Services          //// 
.................... //// This source code may only be used by licensed users of the CCS C  //// 
.................... //// compiler.  This source code may only be distributed to other      //// 
.................... //// licensed users of the CCS C compiler.  No other use, reproduction //// 
.................... //// or distribution is permitted without written permission.          //// 
.................... //// Derivative programs created using this software in object code    //// 
.................... //// form are not restricted in any way.                               //// 
.................... /////////////////////////////////////////////////////////////////////////// 
.................... #device PIC16F877 
....................  
.................... #list 
....................  
.................... #fuses HS,NOWDT,NOPROTECT 
.................... #use delay(clock=20000000) 
0031:  MOVLW  35
0032:  MOVWF  04
0033:  BCF    03.7
0034:  MOVF   00,W
0035:  BTFSC  03.2
0036:  GOTO   044
0037:  MOVLW  06
0038:  MOVWF  78
0039:  CLRF   77
003A:  DECFSZ 77,F
003B:  GOTO   03A
003C:  DECFSZ 78,F
003D:  GOTO   039
003E:  MOVLW  7B
003F:  MOVWF  77
0040:  DECFSZ 77,F
0041:  GOTO   040
0042:  DECFSZ 00,F
0043:  GOTO   037
0044:  RETURN
.................... #use rs232(baud=9600, xmit=PIN_C6, rcv=PIN_C7)              //Puerto Serie ->Bluetoth 
.................... #use i2c(MASTER, SDA=PIN_C4, SCL=PIN_C3,SLOW, NOFORCE_SW)    
.................... #include <i2c_Flex_LCD.c>                                   //LCD 
.................... //-----------------------------------------------------------------------------  
.................... // Title:         i2c_Flex_LCD  
.................... // Description:   Driver for common LCD with 1/2/3 or 4 rows by 1...20 columns  
.................... //                using PCF8574T interface board with I2C protocol.  
.................... // Date:          Nov-2013  
.................... // Ver.Rev.:      1.1  
.................... // Author:        Hugo Silva (sergio-hugo@bol.com.br) #Based on the routines of  
.................... //                "20X4_LCD_I2C_DRIVER.h" from Pumrin S. and "lcd4_i2c.c" from XP8100  
.................... //-----------------------------------------------------------------------------  
.................... //  
.................... // lcd_init() Must be called before any other function.  
.................... //  
.................... // lcd_putc(c) Will display c on the next position of the LCD.  
.................... //   
.................... //     \f Clear LCD display  
.................... //     \n Set write position on next lcd line  
.................... //     \b LCD backspace  
.................... //     lcd_gotoxy(x,y) Set write position on LCD (upper left is 1,1)  
.................... //  
.................... // lcd_backlight_led(ON)/lcd_backlight_led(OFF) = Turn ON/OFF LCD Backlight LED  
.................... //  
.................... //-----------------------------------------------------------------------------  
.................... // LCD pins D0-D3 are not used.  
.................... //-----------------------------------------------------------------------------  
.................... //  
.................... // Comment   : Control of a compatible LCD (1...4 rows by 1...4 columns) from  
.................... //              a bus I2C with an EXPANDER of I/O with connection I2C.  
.................... //              The tests of these routines have been programmed using the IC  
.................... //              Phillips PCF8574T. I've used 4 bits mode programming.  
.................... //              The 8 bits mode programming is possible if you use 2 x PCF8574T.  
.................... //              RW Pin is not being used.  
.................... //  
.................... // As defined in the following structure the pin connection is as follows:  
.................... //  
.................... //  PCF8574P     LCD  
.................... //  ========     ======  
.................... //     P0        RS  
.................... //     P1        RW    (Not used!)  
.................... //     P2        Enable   
.................... //     P3        Led Backlight  
.................... //     P4        D4  
.................... //     P5        D5  
.................... //     P6        D6  
.................... //     P7        D7  
.................... //  
.................... //  The SCL and SDA pins should be pull-up resistor as shown below:  
.................... //  
.................... //             +5v  
.................... //               |  
.................... //               <  
.................... //               > 4.7K         
.................... //               <           
.................... //To PIC         |          To i2c slave  
.................... //pin xx ------------------ SDA pin   
.................... //(SDA)                       
.................... //              +5v  
.................... //               |  
.................... //               <  
.................... //               > 4.7K         
.................... //               <           
.................... //To PIC         |          To i2c slave  
.................... //pin xx ------------------ SCL pin   
.................... //(SCL)  
.................... //  
.................... //To PIC                    To i2c slave  
.................... //Vss pin ----------------- Vss or ground pin   
.................... //                |  
.................... //              -----  
.................... //               ---  Ground  
.................... //                -   
.................... //   
.................... // THIS DOCUMENT IS PROVIDED TO THE USER "AS IS"  
.................... //-----------------------------------------------------------------------------  
.................... byte LCD_ADDR ;//             0x4E        //I2C slave address for LCD module  
.................... byte lcd_total_rows ;//       2           //Number of rows: 1,2,3 or 4  
.................... byte lcd_total_columns ;//    16          //Number of columns: 1...20    
....................  
.................... #define RS                    0b00000001  //P0 - PCF8574T Pin connected to RS  
.................... #define RW                    0b00000010  //P1 - PCF8574T Pin connected to RW  
.................... #define ENABLE                0b00000100  //P2 - PCF8574T Pin connected to EN  
.................... #define LCD_BACKLIGHT         0b00001000  //P3 - PCF8574T Pin connected to BACKLIGHT LED  
....................  
.................... #define addr_row_one          0x00        //LCD RAM address for row 1  
.................... #define addr_row_two          0x40        //LCD RAM address for row 2  
.................... #define addr_row_three        0x14        //LCD RAM address for row 3  
.................... #define addr_row_four         0x54        //LCD RAM address for row 4  
....................  
.................... #define ON                    1  
.................... #define OFF                   0  
.................... #define NOT                   ~  
.................... #define data_shifted          data<<4  
.................... int8 new_row_request=1, BACKLIGHT_LED=LCD_BACKLIGHT;  
....................  
.................... void lcd_backlight_led(byte bl)  
.................... {   
....................       If (bl) BACKLIGHT_LED=LCD_BACKLIGHT; else BACKLIGHT_LED=OFF;  
.................... }  
....................  
.................... void i2c_send_nibble(byte data, byte type)  
.................... {     
....................    switch (type)  
....................    {       
....................       case 0 :       
....................       i2c_write(data_shifted | BACKLIGHT_LED);  
....................       delay_cycles(1);  
....................       i2c_write(data_shifted | ENABLE | BACKLIGHT_LED );  
....................       delay_us(2);  
....................       i2c_write(data_shifted & NOT ENABLE | BACKLIGHT_LED);  
....................       break;  
....................        
....................       case 1 :  
....................       i2c_write(data_shifted | RS | BACKLIGHT_LED);  
....................       delay_cycles(1);  
....................       i2c_write(data_shifted | RS | ENABLE | BACKLIGHT_LED );  
....................       delay_us(2);  
....................       i2c_write(data_shifted | RS | BACKLIGHT_LED);  
....................       break;  
....................    }  
.................... }  
....................      
.................... void lcd_send_byte(byte data, byte type)  
....................    {  
....................         i2c_start();  
....................         i2c_write(LCD_ADDR);  
....................         i2c_send_nibble(data >> 4 , type);  
....................         i2c_send_nibble(data & 0xf , type);  
....................         i2c_stop();         
....................    }  
....................  
.................... void lcd_clear()  
.................... {   
....................         lcd_send_byte(0x01,0);  
....................         delay_ms(2);  
....................         new_row_request=1;  
.................... }  
....................  
.................... void lcd_init(byte ADDR, byte col, byte row)  
.................... {  
....................    byte i; 
....................    byte CONST lcd_type=2;  // 0=5x7, 1=5x10, 2=2 lines  
....................    byte CONST LCD_INIT_STRING[4] = {0x20 | (lcd_type << 2), 0xc, 1, 6}; // These bytes need to be sent to the LCD to start it up. 
....................     
....................    LCD_ADDR =ADDR;//             0x4E        //I2C slave address for LCD module  
....................    lcd_total_rows =row;//       2           //Number of rows: 1,2,3 or 4  
....................    lcd_total_columns= col ; 
....................    disable_interrupts(GLOBAL);  
....................    delay_ms(50); //LCD power up delay  
....................      
....................    i2c_start();  
....................    i2c_write(LCD_ADDR);  
....................       i2c_send_nibble(0x00,0);  
....................       delay_ms(15);  
....................      
....................    for (i=1;i<=3;++i)     
....................    {  
....................       i2c_send_nibble(0x03,0);  
....................       delay_ms(5);  
....................    }     
....................       i2c_send_nibble(0x02,0);  
....................       delay_ms(5);  
....................    i2c_stop();  
....................      
....................    for (i=0;i<=3;++i) {  
....................    lcd_send_byte(LCD_INIT_STRING[i],0);  
....................    delay_ms(5);  
....................    }  
....................    lcd_clear();  //Clear Display  
....................    enable_interrupts(GLOBAL);  
.................... }  
....................  
.................... void lcd_gotoxy( byte x, byte y)  
.................... {  
.................... byte row,column,row_addr,lcd_address;  
.................... static char data;  
*
014F:  BCF    03.5
0150:  CLRF   2E
....................  
....................    if (y>lcd_total_rows) row=lcd_total_rows; else row=y;  
....................    
....................    switch(row)  
....................    {  
....................       case 1:  row_addr=addr_row_one;     break;  
....................       case 2:  row_addr=addr_row_two;     break;  
....................       case 3:  row_addr=addr_row_three;   break;  
....................       case 4:  row_addr=addr_row_four;    break;  
....................       default: row_addr=addr_row_one;     break;   
....................    }   
....................      
....................    if (x>lcd_total_columns) column=lcd_total_columns; else column=x;   
....................    lcd_address=(row_addr+(column-1));  
....................    lcd_send_byte(0x80|lcd_address,0);  
.................... }  
....................  
.................... //Display the character on LCD screen.  
.................... void LCD_PUTC(char in_data)  
.................... {     
....................   switch(in_data)  
....................    {   
....................      case '\f': lcd_clear();                       break;                 
....................        
....................      case '\n':  
....................      new_row_request++;  
....................      if (new_row_request>lcd_total_rows) new_row_request=1;  
....................      lcd_gotoxy(1, new_row_request);  
....................      break;  
....................                    
....................      case '\b': lcd_send_byte(0x10,0);             break;  
....................          
....................      default: lcd_send_byte(in_data,1);            break;       
....................        
....................    }  
.................... }  
....................  
.................... #org 0x1F00,0x1FFF void loader16F877(void){}                //Terminal 
*
1F00:  RETURN
....................  
.................... /// === Vaiable Globales === 
.................... int direccion=0,movCoche=0; 
.................... int velocidad=1,changeVel=0; 
.................... char b; 
....................  
.................... #int_RDA       //Se recbio un dato 
.................... void direcCarro(){ 
....................    b = getchar(); 
*
0045:  BTFSS  0C.5
0046:  GOTO   045
0047:  MOVF   1A,W
0048:  MOVWF  33
....................    if(b == 'S'){     //Para: 0 
0049:  MOVF   33,W
004A:  SUBLW  53
004B:  BTFSC  03.2
....................       direccion = 0; 
004C:  CLRF   2F
....................    } 
....................    if(b == 'A'){     //Hacia adelante: 1  
004D:  MOVF   33,W
004E:  SUBLW  41
004F:  BTFSS  03.2
0050:  GOTO   053
....................       direccion = 1;        //1010 -> M1=DERECHA M2=DERECHA 
0051:  MOVLW  01
0052:  MOVWF  2F
....................    } 
....................    if(b == 'R'){     //Hacia atras: 2 
0053:  MOVF   33,W
0054:  SUBLW  52
0055:  BTFSS  03.2
0056:  GOTO   059
....................       direccion = 2;         //0101 -> M1=IZQUIERDA M2=IZQUIERDA 
0057:  MOVLW  02
0058:  MOVWF  2F
....................    } 
....................    if(b == 'I'){     //Hacia la izquierda: 3 
0059:  MOVF   33,W
005A:  SUBLW  49
005B:  BTFSS  03.2
005C:  GOTO   05F
....................       direccion = 3;         //0110 -> M1=IZQUIERDA M2=DERECHA 
005D:  MOVLW  03
005E:  MOVWF  2F
....................    } 
....................    if(b == 'D'){     //Hacia derecha: 4 
005F:  MOVF   33,W
0060:  SUBLW  44
0061:  BTFSS  03.2
0062:  GOTO   065
....................       direccion = 4;         //1001 -> M1=DERECHA M2=IZQUIERDA 
0063:  MOVLW  04
0064:  MOVWF  2F
....................    } 
....................    if(b=='F'){ //aumenta la velocidad 
0065:  MOVF   33,W
0066:  SUBLW  46
0067:  BTFSS  03.2
0068:  GOTO   070
....................       if(velocidad<3){ 
0069:  MOVF   31,W
006A:  SUBLW  02
006B:  BTFSS  03.0
006C:  GOTO   070
....................          velocidad+=1; 
006D:  MOVLW  01
006E:  ADDWF  31,F
....................          changeVel=1; 
006F:  MOVWF  32
....................       } 
....................    } 
....................    if(b=='L'){ 
0070:  MOVF   33,W
0071:  SUBLW  4C
0072:  BTFSS  03.2
0073:  GOTO   07B
....................       if(velocidad>1){ 
0074:  MOVF   31,W
0075:  SUBLW  01
0076:  BTFSC  03.0
0077:  GOTO   07B
....................          changeVel=1; 
0078:  MOVLW  01
0079:  MOVWF  32
....................          velocidad-=1; 
007A:  SUBWF  31,F
....................       } 
....................    } 
....................    delay_ms(100);// retardo de 100ms para que se pueda apreciar el cambio 
007B:  MOVLW  64
007C:  MOVWF  35
007D:  CALL   031
007E:  BCF    0C.5
007F:  BCF    0A.3
0080:  BCF    0A.4
0081:  GOTO   01D
.................... } 
.................... void escribir_i2c(){ 
....................    i2c_start();//inicia comunicaci{on 
....................    i2c_write(0x42);//direccion recorrida un lugar 
....................    i2c_write(0); //envia a escribir el contenido de contador 
....................    i2c_stop();//detiene comunicacion 
.................... } 
.................... void cambioVelocidad(); 
.................... void movMotores(); 
.................... void main(){ 
*
0121:  MOVF   03,W
0122:  ANDLW  1F
0123:  MOVWF  03
0124:  MOVLW  81
0125:  BSF    03.5
0126:  MOVWF  19
0127:  MOVLW  A6
0128:  MOVWF  18
0129:  MOVLW  90
012A:  BCF    03.5
012B:  MOVWF  18
012C:  MOVLW  FF
012D:  MOVWF  28
012E:  BSF    28.3
012F:  MOVF   28,W
0130:  BSF    03.5
0131:  MOVWF  07
0132:  BCF    03.5
0133:  BSF    28.4
0134:  MOVF   28,W
0135:  BSF    03.5
0136:  MOVWF  07
0137:  MOVLW  31
0138:  MOVWF  13
0139:  MOVLW  28
013A:  BCF    03.5
013B:  MOVWF  14
013C:  BSF    03.5
013D:  BSF    14.7
013E:  BCF    14.6
013F:  MOVLW  01
0140:  BCF    03.5
0141:  MOVWF  2C
0142:  MOVLW  08
0143:  MOVWF  2D
0144:  CLRF   2F
0145:  CLRF   30
0146:  MOVLW  01
0147:  MOVWF  31
0148:  CLRF   32
0149:  BSF    03.5
014A:  BSF    1F.0
014B:  BSF    1F.1
014C:  BSF    1F.2
014D:  BCF    1F.3
014E:  BCF    03.7
....................    //=== Interrupciones === 
....................    enable_interrupts(INT_RDA);    //Habilita interrupción detección por puerto serie 
0151:  BSF    03.5
0152:  BSF    0C.5
....................    enable_interrupts(GLOBAL); 
0153:  MOVLW  C0
0154:  BCF    03.5
0155:  IORWF  0B,F
....................    setup_timer_2(t2_div_by_16,255,1);//predivisor de 16, PR2=255,  con esto tenemos un periodo de 0.8192ms y frecuencia de 1.22kHZ 
0156:  MOVLW  00
0157:  MOVWF  78
0158:  IORLW  06
0159:  MOVWF  12
015A:  MOVLW  FF
015B:  BSF    03.5
015C:  MOVWF  12
....................    setup_ccp1(ccp_pwm); 
015D:  BCF    03.5
015E:  BCF    28.2
015F:  MOVF   28,W
0160:  BSF    03.5
0161:  MOVWF  07
0162:  BCF    03.5
0163:  BCF    07.2
0164:  MOVLW  0C
0165:  MOVWF  17
....................    set_tris_b(0xF0); //4 bits menos significativos como salida y los 4 bits más significativos como entrada 
0166:  MOVLW  F0
0167:  BSF    03.5
0168:  MOVWF  06
....................    //lcd_init(0x4E,16,2);       // Ajustar de acuerdo a las conexiones (consultar imagen) 
....................    //escribir_i2c(); 
....................    
....................    while(TRUE){ 
....................       movMotores(); 
0169:  BCF    03.5
016A:  GOTO   082
....................       if(changeVel==1)cambioVelocidad(); 
016B:  DECFSZ 32,W
016C:  GOTO   16E
016D:  GOTO   100
016E:  GOTO   16A
....................        
....................    } 
.................... } 
.................... void movMotores(){ 
016F:  SLEEP
....................    switch(direccion){ 
*
0082:  MOVF   2F,W
0083:  XORLW  00
0084:  BTFSC  03.2
0085:  GOTO   093
0086:  XORLW  01
0087:  BTFSC  03.2
0088:  GOTO   099
0089:  XORLW  03
008A:  BTFSC  03.2
008B:  GOTO   0B2
008C:  XORLW  01
008D:  BTFSC  03.2
008E:  GOTO   0CB
008F:  XORLW  07
0090:  BTFSC  03.2
0091:  GOTO   0E4
0092:  GOTO   0FD
....................       case 0: //Alto 
....................          output_b(0x0F);   //limpiamos puerto B  0000 0000 no hay movimiento de los motores 
0093:  BSF    03.5
0094:  CLRF   06
0095:  MOVLW  0F
0096:  BCF    03.5
0097:  MOVWF  06
....................          //lcd_gotoxy(1,1); 
....................          //printf(lcd_putc,"  Alto \n "); 
....................          break;    
0098:  GOTO   0FD
....................       case 1:  //Avanza: 1010:  M1:derecha, M2: derecha 
....................          //output_bit(PIN_B0,0); 
....................          output_bit(PIN_B0,input_state(pin_C2)); 
0099:  BTFSC  07.2
009A:  GOTO   09D
009B:  BCF    06.0
009C:  GOTO   09E
009D:  BSF    06.0
009E:  BSF    03.5
009F:  BCF    06.0
....................          output_bit(PIN_B1,1); 
00A0:  BCF    03.5
00A1:  BSF    06.1
00A2:  BSF    03.5
00A3:  BCF    06.1
....................          output_bit(PIN_B2,input_state(pin_C2)); 
00A4:  BCF    03.5
00A5:  BTFSC  07.2
00A6:  GOTO   0A9
00A7:  BCF    06.2
00A8:  GOTO   0AA
00A9:  BSF    06.2
00AA:  BSF    03.5
00AB:  BCF    06.2
....................          //output_bit(PIN_B2,0); 
....................          output_bit(PIN_B3,1); 
00AC:  BCF    03.5
00AD:  BSF    06.3
00AE:  BSF    03.5
00AF:  BCF    06.3
....................          //lcd_gotoxy(1,1); 
....................          //printf(lcd_putc,"  Avanza \n "); 
....................          break; 
00B0:  BCF    03.5
00B1:  GOTO   0FD
....................       case 2:   //Retrocede: 0101:  M1:izquierda, M2: izquierda 
....................          output_bit(PIN_B0,1); 
00B2:  BSF    06.0
00B3:  BSF    03.5
00B4:  BCF    06.0
....................          output_bit(PIN_B1,input_state(pin_C2)); 
00B5:  BCF    03.5
00B6:  BTFSC  07.2
00B7:  GOTO   0BA
00B8:  BCF    06.1
00B9:  GOTO   0BB
00BA:  BSF    06.1
00BB:  BSF    03.5
00BC:  BCF    06.1
....................          //output_bit(PIN_B1,0); 
....................          output_bit(PIN_B2,1); 
00BD:  BCF    03.5
00BE:  BSF    06.2
00BF:  BSF    03.5
00C0:  BCF    06.2
....................          output_bit(PIN_B3,input_state(pin_C2)); 
00C1:  BCF    03.5
00C2:  BTFSC  07.2
00C3:  GOTO   0C6
00C4:  BCF    06.3
00C5:  GOTO   0C7
00C6:  BSF    06.3
00C7:  BSF    03.5
00C8:  BCF    06.3
....................          //output_bit(PIN_B3,0); 
....................          //lcd_gotoxy(1,1); 
....................          //printf(lcd_putc,"  Retrocede \n "); 
....................          break; 
00C9:  BCF    03.5
00CA:  GOTO   0FD
....................       case 3:   //Izquierda: 0110:  M1:izquierda, M2: izquierda 
....................          output_bit(PIN_B0,input_state(pin_C2)); 
00CB:  BTFSC  07.2
00CC:  GOTO   0CF
00CD:  BCF    06.0
00CE:  GOTO   0D0
00CF:  BSF    06.0
00D0:  BSF    03.5
00D1:  BCF    06.0
....................          //output_bit(PIN_B0,0); 
....................          output_bit(PIN_B0,1); 
00D2:  BCF    03.5
00D3:  BSF    06.0
00D4:  BSF    03.5
00D5:  BCF    06.0
....................          output_bit(PIN_B2,1); 
00D6:  BCF    03.5
00D7:  BSF    06.2
00D8:  BSF    03.5
00D9:  BCF    06.2
....................          output_bit(PIN_B3,input_state(pin_C2)); 
00DA:  BCF    03.5
00DB:  BTFSC  07.2
00DC:  GOTO   0DF
00DD:  BCF    06.3
00DE:  GOTO   0E0
00DF:  BSF    06.3
00E0:  BSF    03.5
00E1:  BCF    06.3
....................          //output_bit(PIN_B3,0); 
....................          //lcd_gotoxy(1,1); 
....................          //printf(lcd_putc,"  Retrocede \n "); 
....................          break; 
00E2:  BCF    03.5
00E3:  GOTO   0FD
....................       case 4:  //Derecha: 1001:  M1:derecha, M2: derecha 
....................          output_bit(PIN_B0,1); 
00E4:  BSF    06.0
00E5:  BSF    03.5
00E6:  BCF    06.0
....................          output_bit(PIN_B1,input_state(pin_C2)); 
00E7:  BCF    03.5
00E8:  BTFSC  07.2
00E9:  GOTO   0EC
00EA:  BCF    06.1
00EB:  GOTO   0ED
00EC:  BSF    06.1
00ED:  BSF    03.5
00EE:  BCF    06.1
....................          //output_bit(PIN_B1,0); 
....................          output_bit(PIN_B2,input_state(pin_C2)); 
00EF:  BCF    03.5
00F0:  BTFSC  07.2
00F1:  GOTO   0F4
00F2:  BCF    06.2
00F3:  GOTO   0F5
00F4:  BSF    06.2
00F5:  BSF    03.5
00F6:  BCF    06.2
....................          //output_bit(PIN_B2,0); 
....................          output_bit(PIN_B3,1); 
00F7:  BCF    03.5
00F8:  BSF    06.3
00F9:  BSF    03.5
00FA:  BCF    06.3
....................          //lcd_gotoxy(1,1); 
....................          //printf(lcd_putc,"  Avanza \n "); 
....................          break;       
00FB:  BCF    03.5
00FC:  GOTO   0FD
....................           
....................       default: 
....................          break; 
....................    } 
00FD:  BCF    0A.3
00FE:  BCF    0A.4
00FF:  GOTO   16B (RETURN)
.................... } 
.................... void cambioVelocidad(){ 
....................    switch(velocidad){ 
0100:  MOVF   31,W
0101:  XORLW  01
0102:  BTFSC  03.2
0103:  GOTO   10B
0104:  XORLW  03
0105:  BTFSC  03.2
0106:  GOTO   10E
0107:  XORLW  01
0108:  BTFSC  03.2
0109:  GOTO   111
010A:  GOTO   114
....................       case 1: 
....................          set_pwm1_duty(20); 
010B:  MOVLW  14
010C:  MOVWF  15
....................          //lcd_gotoxy(1,2); 
....................          //printf(lcd_putc,"  Velocidad 3 \n "); 
....................          break;    
010D:  GOTO   114
....................       case 2:   
....................          set_pwm1_duty(60); 
010E:  MOVLW  3C
010F:  MOVWF  15
....................          //lcd_gotoxy(1,2); 
....................          //printf(lcd_putc,"  Velocidad 2 \n "); 
....................          break; 
0110:  GOTO   114
....................       case 3:   
....................          set_pwm1_duty(127); 
0111:  MOVLW  7F
0112:  MOVWF  15
....................          //lcd_gotoxy(1,2); 
....................          //printf(lcd_putc,"  Velocidad 1 \n "); 
....................          break; 
0113:  GOTO   114
....................       default: 
....................          break; 
....................    } 
....................    changeVel=0; //reiniciamos la bandera de velocidad para permitir otros cambios de velocidad 
0114:  CLRF   32
0115:  CLRF   27
0116:  BTFSC  0B.7
0117:  BSF    27.7
0118:  BCF    0B.7
....................    delay_ms(100); 
0119:  MOVLW  64
011A:  MOVWF  35
011B:  CALL   031
011C:  BTFSC  27.7
011D:  BSF    0B.7
011E:  BCF    0A.3
011F:  BCF    0A.4
0120:  GOTO   16E (RETURN)
....................     
....................     
.................... } 

Configuration Fuses:
   Word  1: 3F72   HS NOWDT PUT BROWNOUT NOLVP NOCPD NOWRT NODEBUG NOPROTECT
