CCS PCM C Compiler, Version 5.076, 2401               19-jun.-23 19:36

               Filename:   D:\carlo\Documentos\FI\8vo Semestre\Micro-computadoras\Microcomputadoras\ProyectoFinal\v3\proyecto6.lst

               ROM used:   219 words (3%)
                           Largest free fragment is 2048
               RAM used:   16 (4%) at main() level
                           17 (5%) worst case
               Stack used: 0 locations
               Stack size: 8

*
0000:  MOVLW  00
0001:  MOVWF  0A
0002:  GOTO   043
0003:  NOP
.................... #include <16F877.h> 
.................... //////////// Standard Header file for the PIC16F877 device //////////////// 
.................... /////////////////////////////////////////////////////////////////////////// 
.................... ////        (C) Copyright 1996, 2014 Custom Computer Services          //// 
.................... //// This source code may only be used by licensed users of the CCS C  //// 
.................... //// compiler.  This source code may only be distributed to other      //// 
.................... //// licensed users of the CCS C compiler.  No other use, reproduction //// 
.................... //// or distribution is permitted without written permission.          //// 
.................... //// Derivative programs created using this software in object code    //// 
.................... //// form are not restricted in any way.                               //// 
.................... /////////////////////////////////////////////////////////////////////////// 
.................... #device PIC16F877 
....................  
.................... #list 
....................  
.................... #fuses HS,NOWDT,NOPROTECT 
.................... #use delay(clock=20000000) 
0004:  MOVLW  2B
0005:  MOVWF  04
0006:  BCF    03.7
0007:  MOVF   00,W
0008:  BTFSC  03.2
0009:  GOTO   017
000A:  MOVLW  06
000B:  MOVWF  78
000C:  CLRF   77
000D:  DECFSZ 77,F
000E:  GOTO   00D
000F:  DECFSZ 78,F
0010:  GOTO   00C
0011:  MOVLW  7B
0012:  MOVWF  77
0013:  DECFSZ 77,F
0014:  GOTO   013
0015:  DECFSZ 00,F
0016:  GOTO   00A
0017:  RETURN
.................... #use rs232(baud=9600, xmit=PIN_C6, rcv=PIN_C7)  
.................... #use i2c(MASTER, SDA=PIN_C4, SCL=PIN_C3,SLOW, NOFORCE_SW)//configuraci{on de comunicaci{on maestro y esclavo 
.................... #include <i2c_Flex_LCD.c>                                   //LCD 
.................... //-----------------------------------------------------------------------------  
.................... // Title:         i2c_Flex_LCD  
.................... // Description:   Driver for common LCD with 1/2/3 or 4 rows by 1...20 columns  
.................... //                using PCF8574T interface board with I2C protocol.  
.................... // Date:          Nov-2013  
.................... // Ver.Rev.:      1.1  
.................... // Author:        Hugo Silva (sergio-hugo@bol.com.br) #Based on the routines of  
.................... //                "20X4_LCD_I2C_DRIVER.h" from Pumrin S. and "lcd4_i2c.c" from XP8100  
.................... //-----------------------------------------------------------------------------  
.................... //  
.................... // lcd_init() Must be called before any other function.  
.................... //  
.................... // lcd_putc(c) Will display c on the next position of the LCD.  
.................... //   
.................... //     \f Clear LCD display  
.................... //     \n Set write position on next lcd line  
.................... //     \b LCD backspace  
.................... //     lcd_gotoxy(x,y) Set write position on LCD (upper left is 1,1)  
.................... //  
.................... // lcd_backlight_led(ON)/lcd_backlight_led(OFF) = Turn ON/OFF LCD Backlight LED  
.................... //  
.................... //-----------------------------------------------------------------------------  
.................... // LCD pins D0-D3 are not used.  
.................... //-----------------------------------------------------------------------------  
.................... //  
.................... // Comment   : Control of a compatible LCD (1...4 rows by 1...4 columns) from  
.................... //              a bus I2C with an EXPANDER of I/O with connection I2C.  
.................... //              The tests of these routines have been programmed using the IC  
.................... //              Phillips PCF8574T. I've used 4 bits mode programming.  
.................... //              The 8 bits mode programming is possible if you use 2 x PCF8574T.  
.................... //              RW Pin is not being used.  
.................... //  
.................... // As defined in the following structure the pin connection is as follows:  
.................... //  
.................... //  PCF8574P     LCD  
.................... //  ========     ======  
.................... //     P0        RS  
.................... //     P1        RW    (Not used!)  
.................... //     P2        Enable   
.................... //     P3        Led Backlight  
.................... //     P4        D4  
.................... //     P5        D5  
.................... //     P6        D6  
.................... //     P7        D7  
.................... //  
.................... //  The SCL and SDA pins should be pull-up resistor as shown below:  
.................... //  
.................... //             +5v  
.................... //               |  
.................... //               <  
.................... //               > 4.7K         
.................... //               <           
.................... //To PIC         |          To i2c slave  
.................... //pin xx ------------------ SDA pin   
.................... //(SDA)                       
.................... //              +5v  
.................... //               |  
.................... //               <  
.................... //               > 4.7K         
.................... //               <           
.................... //To PIC         |          To i2c slave  
.................... //pin xx ------------------ SCL pin   
.................... //(SCL)  
.................... //  
.................... //To PIC                    To i2c slave  
.................... //Vss pin ----------------- Vss or ground pin   
.................... //                |  
.................... //              -----  
.................... //               ---  Ground  
.................... //                -   
.................... //   
.................... // THIS DOCUMENT IS PROVIDED TO THE USER "AS IS"  
.................... //-----------------------------------------------------------------------------  
.................... byte LCD_ADDR ;//             0x4E        //I2C slave address for LCD module  
.................... byte lcd_total_rows ;//       2           //Number of rows: 1,2,3 or 4  
.................... byte lcd_total_columns ;//    16          //Number of columns: 1...20    
....................  
.................... #define RS                    0b00000001  //P0 - PCF8574T Pin connected to RS  
.................... #define RW                    0b00000010  //P1 - PCF8574T Pin connected to RW  
.................... #define ENABLE                0b00000100  //P2 - PCF8574T Pin connected to EN  
.................... #define LCD_BACKLIGHT         0b00001000  //P3 - PCF8574T Pin connected to BACKLIGHT LED  
....................  
.................... #define addr_row_one          0x00        //LCD RAM address for row 1  
.................... #define addr_row_two          0x40        //LCD RAM address for row 2  
.................... #define addr_row_three        0x14        //LCD RAM address for row 3  
.................... #define addr_row_four         0x54        //LCD RAM address for row 4  
....................  
.................... #define ON                    1  
.................... #define OFF                   0  
.................... #define NOT                   ~  
.................... #define data_shifted          data<<4  
.................... int8 new_row_request=1, BACKLIGHT_LED=LCD_BACKLIGHT;  
....................  
.................... void lcd_backlight_led(byte bl)  
.................... {   
....................       If (bl) BACKLIGHT_LED=LCD_BACKLIGHT; else BACKLIGHT_LED=OFF;  
.................... }  
....................  
.................... void i2c_send_nibble(byte data, byte type)  
.................... {     
....................    switch (type)  
....................    {       
....................       case 0 :       
....................       i2c_write(data_shifted | BACKLIGHT_LED);  
....................       delay_cycles(1);  
....................       i2c_write(data_shifted | ENABLE | BACKLIGHT_LED );  
....................       delay_us(2);  
....................       i2c_write(data_shifted & NOT ENABLE | BACKLIGHT_LED);  
....................       break;  
....................        
....................       case 1 :  
....................       i2c_write(data_shifted | RS | BACKLIGHT_LED);  
....................       delay_cycles(1);  
....................       i2c_write(data_shifted | RS | ENABLE | BACKLIGHT_LED );  
....................       delay_us(2);  
....................       i2c_write(data_shifted | RS | BACKLIGHT_LED);  
....................       break;  
....................    }  
.................... }  
....................      
.................... void lcd_send_byte(byte data, byte type)  
....................    {  
....................         i2c_start();  
....................         i2c_write(LCD_ADDR);  
....................         i2c_send_nibble(data >> 4 , type);  
....................         i2c_send_nibble(data & 0xf , type);  
....................         i2c_stop();         
....................    }  
....................  
.................... void lcd_clear()  
.................... {   
....................         lcd_send_byte(0x01,0);  
....................         delay_ms(2);  
....................         new_row_request=1;  
.................... }  
....................  
.................... void lcd_init(byte ADDR, byte col, byte row)  
.................... {  
....................    byte i; 
....................    byte CONST lcd_type=2;  // 0=5x7, 1=5x10, 2=2 lines  
....................    byte CONST LCD_INIT_STRING[4] = {0x20 | (lcd_type << 2), 0xc, 1, 6}; // These bytes need to be sent to the LCD to start it up. 
....................     
....................    LCD_ADDR =ADDR;//             0x4E        //I2C slave address for LCD module  
....................    lcd_total_rows =row;//       2           //Number of rows: 1,2,3 or 4  
....................    lcd_total_columns= col ; 
....................    disable_interrupts(GLOBAL);  
....................    delay_ms(50); //LCD power up delay  
....................      
....................    i2c_start();  
....................    i2c_write(LCD_ADDR);  
....................       i2c_send_nibble(0x00,0);  
....................       delay_ms(15);  
....................      
....................    for (i=1;i<=3;++i)     
....................    {  
....................       i2c_send_nibble(0x03,0);  
....................       delay_ms(5);  
....................    }     
....................       i2c_send_nibble(0x02,0);  
....................       delay_ms(5);  
....................    i2c_stop();  
....................      
....................    for (i=0;i<=3;++i) {  
....................    lcd_send_byte(LCD_INIT_STRING[i],0);  
....................    delay_ms(5);  
....................    }  
....................    lcd_clear();  //Clear Display  
....................    enable_interrupts(GLOBAL);  
.................... }  
....................  
.................... void lcd_gotoxy( byte x, byte y)  
.................... {  
.................... byte row,column,row_addr,lcd_address;  
.................... static char data;  
*
0071:  BCF    03.5
0072:  CLRF   26
....................  
....................    if (y>lcd_total_rows) row=lcd_total_rows; else row=y;  
....................    
....................    switch(row)  
....................    {  
....................       case 1:  row_addr=addr_row_one;     break;  
....................       case 2:  row_addr=addr_row_two;     break;  
....................       case 3:  row_addr=addr_row_three;   break;  
....................       case 4:  row_addr=addr_row_four;    break;  
....................       default: row_addr=addr_row_one;     break;   
....................    }   
....................      
....................    if (x>lcd_total_columns) column=lcd_total_columns; else column=x;   
....................    lcd_address=(row_addr+(column-1));  
....................    lcd_send_byte(0x80|lcd_address,0);  
.................... }  
....................  
.................... //Display the character on LCD screen.  
.................... void LCD_PUTC(char in_data)  
.................... {     
....................   switch(in_data)  
....................    {   
....................      case '\f': lcd_clear();                       break;                 
....................        
....................      case '\n':  
....................      new_row_request++;  
....................      if (new_row_request>lcd_total_rows) new_row_request=1;  
....................      lcd_gotoxy(1, new_row_request);  
....................      break;  
....................                    
....................      case '\b': lcd_send_byte(0x10,0);             break;  
....................          
....................      default: lcd_send_byte(in_data,1);            break;       
....................        
....................    }  
.................... }  
....................  
....................  
....................  
.................... int selection=3;// 0:stop, 1:velocidad 1, 2: velocidad 2: 3:velocidad 3 
.................... int control=1; 
.................... void cambioEstado(); 
.................... void movMotores(); 
.................... int contador=0;//variable global de 8 bits no signado 
.................... void escribir_i2c(){ 
....................    i2c_start();//inicia comunicaci{on 
....................    i2c_write(0x4F);//direccion recorrida un lugar 
....................    i2c_write(contador);//envia a escribir el contenido de contador 
....................    i2c_stop();//detiene comunicacion 
.................... } 
....................  
.................... void main() 
*
0043:  MOVF   03,W
0044:  ANDLW  1F
0045:  MOVWF  03
0046:  MOVLW  81
0047:  BSF    03.5
0048:  MOVWF  19
0049:  MOVLW  A6
004A:  MOVWF  18
004B:  MOVLW  90
004C:  BCF    03.5
004D:  MOVWF  18
004E:  MOVLW  FF
004F:  MOVWF  20
0050:  BSF    20.3
0051:  MOVF   20,W
0052:  BSF    03.5
0053:  MOVWF  07
0054:  BCF    03.5
0055:  BSF    20.4
0056:  MOVF   20,W
0057:  BSF    03.5
0058:  MOVWF  07
0059:  MOVLW  31
005A:  MOVWF  13
005B:  MOVLW  28
005C:  BCF    03.5
005D:  MOVWF  14
005E:  BSF    03.5
005F:  BSF    14.7
0060:  BCF    14.6
0061:  MOVLW  01
0062:  BCF    03.5
0063:  MOVWF  24
0064:  MOVLW  08
0065:  MOVWF  25
0066:  MOVLW  03
0067:  MOVWF  27
0068:  MOVLW  01
0069:  MOVWF  28
006A:  CLRF   29
006B:  BSF    03.5
006C:  BSF    1F.0
006D:  BSF    1F.1
006E:  BSF    1F.2
006F:  BCF    1F.3
0070:  BCF    03.7
.................... { 
....................    setup_timer_2(t2_div_by_16,255,1);//predivisor de 16, PR2=255,  con esto tenemos un periodo de 0.8192ms y frecuencia de 1.22kHZ 
0073:  MOVLW  00
0074:  MOVWF  78
0075:  IORLW  06
0076:  MOVWF  12
0077:  MOVLW  FF
0078:  BSF    03.5
0079:  MOVWF  12
....................    setup_ccp1(ccp_pwm); 
007A:  BCF    03.5
007B:  BCF    20.2
007C:  MOVF   20,W
007D:  BSF    03.5
007E:  MOVWF  07
007F:  BCF    03.5
0080:  BCF    07.2
0081:  MOVLW  0C
0082:  MOVWF  17
....................    //output_b(0xFF); //habilitmaos el puerto B como entradas 
....................    set_tris_b(0xF0); //4 bits menos significativos como salida y los 4 bits más significativos como entrada 
0083:  MOVLW  F0
0084:  BSF    03.5
0085:  MOVWF  06
....................    //=== LCD === 
....................    output_d(0x00);             //muestra cero en el display. 
0086:  CLRF   08
0087:  BCF    03.5
0088:  CLRF   08
....................    //lcd_init(0x4E,16,2);       // Ajustar de acuerdo a las conexiones (consultar imagen) 
....................    //lcd_gotoxy(1,1); 
....................    //printf(lcd_putc," Bajo \n ");   
....................    //escribir_i2c(); 
....................    delay_ms(10000); 
0089:  MOVLW  28
008A:  MOVWF  2A
008B:  MOVLW  FA
008C:  MOVWF  2B
008D:  CALL   004
008E:  DECFSZ 2A,F
008F:  GOTO   08B
....................    while(true)//loop infinito 
....................    { 
....................       if(!input(PIN_B4)){ 
0090:  BSF    03.5
0091:  BSF    06.4
0092:  BCF    03.5
0093:  BTFSC  06.4
0094:  GOTO   09B
....................          selection=0;   //posicionamos el cursor al origen del menú 
0095:  CLRF   27
....................          control=1; 
0096:  MOVLW  01
0097:  MOVWF  28
....................          delay_ms(100); //retraso de 100ms para evitar movimientos inesperados 
0098:  MOVLW  64
0099:  MOVWF  2B
009A:  CALL   004
....................       } 
....................       if(!input(PIN_B5)){ 
009B:  BSF    03.5
009C:  BSF    06.5
009D:  BCF    03.5
009E:  BTFSC  06.5
009F:  GOTO   0A6
....................          selection=1;   //posicionamos el cursor al origen del menú 
00A0:  MOVLW  01
00A1:  MOVWF  27
....................          control=1; 
00A2:  MOVWF  28
....................          delay_ms(100); //retraso de 100ms para evitar movimientos inesperados 
00A3:  MOVLW  64
00A4:  MOVWF  2B
00A5:  CALL   004
....................       } 
....................       if(!input(PIN_B6)){ 
00A6:  BSF    03.5
00A7:  BSF    06.6
00A8:  BCF    03.5
00A9:  BTFSC  06.6
00AA:  GOTO   0B2
....................          selection=2;   //posicionamos el cursor al origen del menú 
00AB:  MOVLW  02
00AC:  MOVWF  27
....................          control=1; 
00AD:  MOVLW  01
00AE:  MOVWF  28
....................          delay_ms(100); //retraso de 100ms para evitar movimientos inesperados 
00AF:  MOVLW  64
00B0:  MOVWF  2B
00B1:  CALL   004
....................       } 
....................       If(!input(PIN_B7)){ 
00B2:  BSF    03.5
00B3:  BSF    06.7
00B4:  BCF    03.5
00B5:  BTFSC  06.7
00B6:  GOTO   0BE
....................          selection=3;   //posicionamos el cursor al origen del menú 
00B7:  MOVLW  03
00B8:  MOVWF  27
....................          control=1; 
00B9:  MOVLW  01
00BA:  MOVWF  28
....................          delay_ms(100); //retraso de 100ms para evitar movimientos inesperados 
00BB:  MOVLW  64
00BC:  MOVWF  2B
00BD:  CALL   004
....................       } 
....................       if(control==1){ 
00BE:  DECFSZ 28,W
00BF:  GOTO   0C2
....................          //printf(lcd_putc,"\f"); //limpia pantalla LCD 
....................          cambioEstado(); 
00C0:  GOTO   018
....................          control=0; 
00C1:  CLRF   28
....................       } 
....................        
....................       if(selection==0){ 
00C2:  MOVF   27,F
00C3:  BTFSS  03.2
00C4:  GOTO   0CE
....................          output_bit(PIN_B0,1); 
00C5:  BSF    06.0
00C6:  BSF    03.5
00C7:  BCF    06.0
....................          output_bit(PIN_B1,1); 
00C8:  BCF    03.5
00C9:  BSF    06.1
00CA:  BSF    03.5
00CB:  BCF    06.1
....................       }else{ 
00CC:  GOTO   0D9
00CD:  BCF    03.5
....................          output_bit(PIN_B0,1); 
00CE:  BSF    06.0
00CF:  BSF    03.5
00D0:  BCF    06.0
....................          //if(input_state(pin_C2)==0){ 
....................            // output_bit(PIN_B1,0); 
....................          //}else{ 
....................            // output_bit(PIN_B1,1); 
....................          //} 
....................          output_bit(PIN_B1,input_state(pin_C2)); 
00D1:  BCF    03.5
00D2:  BTFSC  07.2
00D3:  GOTO   0D6
00D4:  BCF    06.1
00D5:  GOTO   0D7
00D6:  BSF    06.1
00D7:  BSF    03.5
00D8:  BCF    06.1
....................       } 
00D9:  GOTO   091
....................    } 
.................... } 
.................... //Función que permite modificar el ciclo de trabajo del PWM, este cambio se verá posteriormente reflejado en los pines de control del motor 
00DA:  SLEEP
.................... //generando un cambio de velocidad en estos 
.................... void cambioEstado(){ 
....................    switch(selection){ 
*
0018:  MOVF   27,W
0019:  XORLW  00
001A:  BTFSC  03.2
001B:  GOTO   026
001C:  XORLW  01
001D:  BTFSC  03.2
001E:  GOTO   02E
001F:  XORLW  03
0020:  BTFSC  03.2
0021:  GOTO   032
0022:  XORLW  01
0023:  BTFSC  03.2
0024:  GOTO   036
0025:  GOTO   03B
....................       case 0:  
....................          output_bit(PIN_B0,1); 
0026:  BSF    06.0
0027:  BSF    03.5
0028:  BCF    06.0
....................          output_bit(PIN_B1,1); 
0029:  BCF    03.5
002A:  BSF    06.1
002B:  BSF    03.5
002C:  BCF    06.1
....................          //lcd_gotoxy(1,1); 
....................          //printf(lcd_putc," Stop \n "); 
....................          break; 
002D:  GOTO   03C
....................       case 1: 
....................          set_pwm1_duty(20); 
002E:  MOVLW  14
002F:  MOVWF  15
....................          //lcd_gotoxy(1,1); 
....................          //printf(lcd_putc,"  Alto \n "); 
....................          break;    
0030:  BSF    03.5
0031:  GOTO   03C
....................       case 2:   
....................          set_pwm1_duty(60); 
0032:  MOVLW  3C
0033:  MOVWF  15
....................          //lcd_gotoxy(1,1); 
....................          //printf(lcd_putc,"  Medio \n "); 
....................          break; 
0034:  BSF    03.5
0035:  GOTO   03C
....................       case 3:   
....................          set_pwm1_duty(127); 
0036:  MOVLW  7F
0037:  MOVWF  15
....................          //lcd_gotoxy(1,1); 
....................          //printf(lcd_putc,"  Bajo \n "); 
....................          break; 
0038:  BSF    03.5
0039:  GOTO   03C
003A:  BCF    03.5
....................       default: 
....................          break; 
003B:  BSF    03.5
....................    } 
....................    delay_ms(100); 
003C:  MOVLW  64
003D:  BCF    03.5
003E:  MOVWF  2B
003F:  CALL   004
0040:  BCF    0A.3
0041:  BCF    0A.4
0042:  GOTO   0C1 (RETURN)
....................  
.................... } 
.................... void movMotores(){ 
....................    switch(selection){ 
....................       case 0:  
....................          output_b(0x00); 
....................          //lcd_gotoxy(1,1);  
....................          //printf(lcd_putc,"Alto"); 
....................          break; 
....................       case 1: 
....................          set_pwm1_duty(120); 
....................          //printf(lcd_putc,"Nivel 1"); 
....................          break;    
....................       case 2:   
....................          set_pwm1_duty(180); 
....................          //printf(lcd_putc,"Nivel 2"); 
....................          break; 
....................       case 3:   
....................          set_pwm1_duty(250); 
....................          //printf(lcd_putc,"Nivel 3"); 
....................          break; 
....................       default: 
....................          break; 
....................       delay_ms(100); 
....................    } 
.................... } 

Configuration Fuses:
   Word  1: 3F72   HS NOWDT PUT BROWNOUT NOLVP NOCPD NOWRT NODEBUG NOPROTECT
